; Function Attrs: mustprogress uwtable
define dso_local void @_ZN3net14QuicSpdyStreamC2EjPNS_15QuicSpdySessionE(ptr noundef nonnull align 8 dereferenceable(664) %this, i32 noundef %id, ptr noundef %spdy_session) unnamed_addr #0 align 2 personality ptr @__gxx_personality_v0 {
entry:
  tail call void @_ZN3net18ReliableQuicStreamC2EjPNS_11QuicSessionE(ptr noundef nonnull align 8 dereferenceable(377) %this, i32 noundef %id, ptr noundef %spdy_session)
  store ptr getelementptr inbounds ({ [33 x ptr] }, ptr @_ZTVN3net14QuicSpdyStreamE, i64 0, i32 0, i64 2), ptr %this, align 8
  %spdy_session_ = getelementptr inbounds i8, ptr %this, i64 384
  store ptr %spdy_session, ptr %spdy_session_, align 8
  %visitor_ = getelementptr inbounds i8, ptr %this, i64 392
  store ptr null, ptr %visitor_, align 8
  %headers_decompressed_ = getelementptr inbounds i8, ptr %this, i64 400
  store i8 0, ptr %headers_decompressed_, align 8
  %priority_ = getelementptr inbounds i8, ptr %this, i64 401
  store i8 3, ptr %priority_, align 1
  %decompressed_headers_ = getelementptr inbounds i8, ptr %this, i64 408
  tail call void @_ZNSt7__cxx1112basic_stringIcSt11char_traitsIcESaIcEEC1Ev(ptr noundef nonnull align 8 dereferenceable(32) %decompressed_headers_) #12
  %header_list_ = getelementptr inbounds i8, ptr %this, i64 440
  invoke void @_ZN3net14QuicHeaderListC1Ev(ptr noundef nonnull align 8 dereferenceable(96) %header_list_)
          to label %invoke.cont unwind label %lpad

invoke.cont:                                      ; preds = %entry
  %trailers_decompressed_ = getelementptr inbounds i8, ptr %this, i64 536
  store i8 0, ptr %trailers_decompressed_, align 8
  %trailers_delivered_ = getelementptr inbounds i8, ptr %this, i64 537
  store i8 0, ptr %trailers_delivered_, align 1
  %decompressed_trailers_ = getelementptr inbounds i8, ptr %this, i64 544
  tail call void @_ZNSt7__cxx1112basic_stringIcSt11char_traitsIcESaIcEEC1Ev(ptr noundef nonnull align 8 dereferenceable(32) %decompressed_trailers_) #12
  %received_trailers_ = getelementptr inbounds i8, ptr %this, i64 576
  invoke void @_ZN3net15SpdyHeaderBlockC1Ev(ptr noundef nonnull align 8 dereferenceable(88) %received_trailers_)
          to label %if.end unwind label %lpad2

lpad:                                             ; preds = %entry
  %0 = landingpad { ptr, i32 }
          cleanup
  br label %ehcleanup21

lpad2:                                            ; preds = %invoke.cont
  %1 = landingpad { ptr, i32 }
          cleanup
  br label %ehcleanup19

lpad4:                                            ; preds = %invoke.cont15, %if.end
  %2 = landingpad { ptr, i32 }
          cleanup
  tail call void @_ZN3net15SpdyHeaderBlockD1Ev(ptr noundef nonnull align 8 dereferenceable(88) %received_trailers_) #12
  br label %ehcleanup19

if.end:                                           ; preds = %invoke.cont
  %sequencer_.i = getelementptr inbounds i8, ptr %this, i64 40
  invoke void @_ZN3net19QuicStreamSequencer20SetBlockedUntilFlushEv(ptr noundef nonnull align 8 dereferenceable(169) %sequencer_.i)
          to label %invoke.cont15 unwind label %lpad4

invoke.cont15:                                    ; preds = %if.end
  %3 = load ptr, ptr %spdy_session_, align 8
  %4 = load i8, ptr %priority_, align 1
  invoke void @_ZN3net15QuicSpdySession22RegisterStreamPriorityEjh(ptr noundef nonnull align 8 dereferenceable(2057) %3, i32 noundef %id, i8 noundef zeroext %4)
          to label %invoke.cont18 unwind label %lpad4

invoke.cont18:                                    ; preds = %invoke.cont15
  ret void

ehcleanup19:                                      ; preds = %lpad4, %lpad2
  %.pn = phi { ptr, i32 } [ %2, %lpad4 ], [ %1, %lpad2 ]
  tail call void @_ZNSt7__cxx1112basic_stringIcSt11char_traitsIcESaIcEED1Ev(ptr noundef nonnull align 8 dereferenceable(32) %decompressed_trailers_) #12
  tail call void @_ZN3net14QuicHeaderListD1Ev(ptr noundef nonnull align 8 dereferenceable(96) %header_list_) #12
  br label %ehcleanup21

ehcleanup21:                                      ; preds = %ehcleanup19, %lpad
  %.pn.pn = phi { ptr, i32 } [ %.pn, %ehcleanup19 ], [ %0, %lpad ]
  tail call void @_ZNSt7__cxx1112basic_stringIcSt11char_traitsIcESaIcEED1Ev(ptr noundef nonnull align 8 dereferenceable(32) %decompressed_headers_) #12
  tail call void @_ZN3net18ReliableQuicStreamD2Ev(ptr noundef nonnull align 8 dereferenceable(377) %this) #12
  resume { ptr, i32 } %.pn.pn
}